Certificate:
    Data:
        Version: 3 (0x2)
        Serial Number:
            0d:d6:28:7f:e9:13:1e:85:d2:50:91:c8:ad:73:34:32:48:b2:74:76
        Signature Algorithm: sha256WithRSAEncryption
        Issuer: CN = localhost
        Validity
            Not Before: Mar 14 11:01:50 2025 GMT
            Not After : Apr 13 11:01:50 2025 GMT
        Subject: CN = localhost
        Subject Public Key Info:
            Public Key Algorithm: rsaEncryption
                Public-Key: (2048 bit)
                Modulus:
                    00:fe:68:aa:7c:9f:ec:69:ee:f5:aa:3b:2a:4d:2d:
                    b6:17:c0:b3:55:34:d4:08:79:80:ee:b9:e3:ff:4f:
                    86:84:09:bc:4f:3d:f3:57:1d:fb:5f:e4:e0:ef:21:
                    4e:33:1f:59:8d:db:bf:b1:54:96:05:81:26:11:fb:
                    a7:a2:69:56:58:9f:9a:d7:cc:ac:37:ee:5b:c6:83:
                    eb:fc:7d:49:d2:7e:0b:6d:11:5d:3d:27:09:11:23:
                    ba:c1:ee:39:ae:24:76:b7:0d:81:d7:77:77:07:cd:
                    bb:69:65:26:65:07:5f:7c:6d:3c:7c:37:3d:5b:f3:
                    e0:38:82:d3:a9:bf:1a:b9:b9:f2:f3:80:95:b6:6f:
                    a9:bd:ad:f8:b9:c4:b7:b8:6d:88:84:e2:23:31:21:
                    42:19:74:fc:51:d8:69:ab:a1:88:ee:3f:19:06:aa:
                    7f:9d:b6:56:46:2b:ff:a2:e7:d3:2d:35:29:81:0c:
                    f4:ab:5b:a0:02:61:00:1e:f8:7a:3a:55:5e:6a:10:
                    f9:0a:27:5d:3a:ea:83:31:91:63:dd:b9:9c:de:62:
                    45:fb:58:e0:5a:d7:3b:e3:6b:d7:e6:61:11:b1:c2:
                    4a:09:f9:91:8b:e0:d8:46:1b:11:5f:cb:8e:8f:a2:
                    30:9f:58:24:7f:b2:53:63:ca:fa:bf:87:c0:2f:10:
                    82:53
                Exponent: 65537 (0x10001)
        X509v3 extensions:
            X509v3 Subject Key Identifier: 
                F1:35:0B:C9:0F:E9:8F:60:8D:F7:EB:09:42:C7:BB:51:8C:C2:2D:C9
            X509v3 Authority Key Identifier: 
                F1:35:0B:C9:0F:E9:8F:60:8D:F7:EB:09:42:C7:BB:51:8C:C2:2D:C9
            X509v3 Basic Constraints: critical
                CA:TRUE
    Signature Algorithm: sha256WithRSAEncryption
    Signature Value:
        b5:b4:86:96:a6:fc:29:20:70:fc:36:85:57:4a:48:83:36:ac:
        5b:56:68:87:7c:b3:2a:b3:47:29:4c:d0:9f:bb:00:af:72:30:
        e9:5e:80:6d:14:4f:70:40:7a:52:b6:87:61:17:62:e4:cc:83:
        b8:b3:90:c8:21:76:25:33:c6:a0:c0:e3:2a:d8:78:d8:42:91:
        fd:47:c9:8c:6f:98:c9:00:a7:e1:11:d3:fa:d4:cc:14:e9:86:
        e9:cd:c6:b1:8a:7d:81:c5:de:fd:a2:6a:e0:ce:62:e6:a8:ab:
        ee:d6:87:79:a5:b8:90:37:f3:50:2a:7f:7b:9f:3e:4a:dd:d8:
        41:b2:71:5c:fd:e3:9f:9b:f1:b3:75:e4:1b:a6:43:40:fe:04:
        99:0e:11:83:ff:a8:7d:0e:5f:6e:dc:df:b9:b9:f5:86:2d:f3:
        9b:c1:12:37:d0:81:28:e6:85:91:b9:7e:df:2c:e6:d4:88:16:
        89:11:76:5b:f5:bb:7a:56:14:d9:e4:45:99:91:63:bc:8d:11:
        fd:71:a6:50:f3:6d:b1:1a:e1:14:be:e3:42:a6:82:d9:93:30:
        3c:c5:e4:35:1c:aa:0a:bb:b7:92:6c:c6:7f:49:e3:ca:53:74:
        3b:9f:4a:fd:bd:93:d4:84:18:02:58:a7:6e:cb:52:de:de:22:
        1b:f1:db:39
-----BEGIN CERTIFICATE-----
MIIDCTCCAfGgAwIBAgIUDdYof+kTHoXSUJHIrXM0MkiydHYwDQYJKoZIhvcNAQEL
BQAwFDESMBAGA1UEAwwJbG9jYWxob3N0MB4XDTI1MDMxNDExMDE1MFoXDTI1MDQx
MzExMDE1MFowFDESMBAGA1UEAwwJbG9jYWxob3N0MIIBIjANBgkqhkiG9w0BAQEF
AAOCAQ8AMIIBCgKCAQEA/miqfJ/sae71qjsqTS22F8CzVTTUCHmA7rnj/0+GhAm8
Tz3zVx37X+Tg7yFOMx9Zjdu/sVSWBYEmEfunomlWWJ+a18ysN+5bxoPr/H1J0n4L
bRFdPScJESO6we45riR2tw2B13d3B827aWUmZQdffG08fDc9W/PgOILTqb8aubny
84CVtm+pva34ucS3uG2IhOIjMSFCGXT8Udhpq6GI7j8ZBqp/nbZWRiv/oufTLTUp
gQz0q1ugAmEAHvh6OlVeahD5CiddOuqDMZFj3bmc3mJF+1jgWtc742vX5mERscJK
CfmRi+DYRhsRX8uOj6Iwn1gkf7JTY8r6v4fALxCCUwIDAQABo1MwUTAdBgNVHQ4E
FgQU8TULyQ/pj2CN9+sJQse7UYzCLckwHwYDVR0jBBgwFoAU8TULyQ/pj2CN9+sJ
Qse7UYzCLckwDwYDVR0TAQH/BAUwAwEB/zANBgkqhkiG9w0BAQsFAAOCAQEAtbSG
lqb8KSBw/DaFV0pIgzasW1Zoh3yzKrNHKUzQn7sAr3Iw6V6AbRRPcEB6UraHYRdi
5MyDuLOQyCF2JTPGoMDjKth42EKR/UfJjG+YyQCn4RHT+tTMFOmG6c3GsYp9gcXe
/aJq4M5i5qir7taHeaW4kDfzUCp/e58+St3YQbJxXP3jn5vxs3XkG6ZDQP4EmQ4R
g/+ofQ5fbtzfubn1hi3zm8ESN9CBKOaFkbl+3yzm1IgWiRF2W/W7elYU2eRFmZFj
vI0R/XGmUPNtsRrhFL7jQqaC2ZMwPMXkNRyqCru3kmzGf0njylN0O59K/b2T1IQY
AlinbstS3t4iG/HbOQ==
-----END CERTIFICATE-----
